target datalayout = "e-m:e-p270:32:32-p271:32:32-p272:64:64-i64:64-i128:128-f80:128-n8:16:32:64-S128"
target triple = "x86_64-pc-linux-gnu"

%struct.Vec_Int_t_ = type { i32, i32, ptr }
%struct.Nf_Man_t_ = type { ptr, ptr, ptr, ptr, ptr, ptr, i32, ptr, %struct.Vec_Ptr_t_, %struct.Vec_Int_t_, %struct.Vec_Int_t_, %struct.Vec_Flt_t_, %struct.Vec_Int_t_, %struct.Vec_Flt_t_, %struct.Vec_Int_t_, %struct.Vec_Int_t_, i32, i32, i32, i32, i32, i64, float, i64, [6 x double], i32 }
%struct.Vec_Ptr_t_ = type { i32, i32, ptr }
%struct.Vec_Flt_t_ = type { i32, i32, ptr }
%struct.Jf_Par_t_ = type { i32, i32, i32, i32, i32, i32, i32, i32, i32, i32, i32, i32, i32, i32, i32, i32, i32, i32, i32, i32, i32, i32, i32, i32, i32, i32, i32, i32, i32, i32, i32, i32, i32, i32, i32, i32, i32, i32, i32, i32, i64, i64, i64, i64, i64, i64, i64, i64, i32, float, float, float, float, ptr, ptr }
%struct.timespec = type { i64, i64 }

@.str.9 = private unnamed_addr constant [7 x i8] c"%s :  \00", align 1
@.str.10 = private unnamed_addr constant [15 x i8] c"Delay =%8.2f  \00", align 1
@.str.11 = private unnamed_addr constant [15 x i8] c"Area =%12.2f  \00", align 1
@.str.12 = private unnamed_addr constant [12 x i8] c"Gate =%6d  \00", align 1
@.str.13 = private unnamed_addr constant [11 x i8] c"Inv =%6d  \00", align 1
@.str.14 = private unnamed_addr constant [12 x i8] c"Edge =%7d  \00", align 1
@.str.15 = private unnamed_addr constant [5 x i8] c"Time\00", align 1
@stdout = external global ptr, align 8
@.str.86 = private unnamed_addr constant [5 x i8] c"%s =\00", align 1
@.str.87 = private unnamed_addr constant [11 x i8] c"%9.2f sec\0A\00", align 1

; Function Attrs: inlinehint nounwind uwtable
define internal void @Abc_PrintTime(i32 noundef %0, ptr noundef %1, i64 noundef %2) #2 {
  %4 = alloca i32, align 4
  %5 = alloca ptr, align 8
  %6 = alloca i64, align 8
  store i32 %0, ptr %4, align 4, !tbaa !17
  store ptr %1, ptr %5, align 8, !tbaa !175
  store i64 %2, ptr %6, align 8, !tbaa !25
  %7 = load ptr, ptr %5, align 8, !tbaa !175
  call void (i32, ptr, ...) @Abc_Print(i32 noundef 1, ptr noundef @.str.86, ptr noundef %7)
  %8 = load i64, ptr %6, align 8, !tbaa !25
  %9 = sitofp i64 %8 to double
  %10 = fmul double 1.000000e+00, %9
  %11 = fdiv double %10, 1.000000e+06
  call void (i32, ptr, ...) @Abc_Print(i32 noundef 1, ptr noundef @.str.87, double noundef %11)
  ret void
}

; Function Attrs: inlinehint nounwind uwtable
define internal i64 @Abc_Clock() #2 {
  %1 = alloca i64, align 8
  %2 = alloca %struct.timespec, align 8
  %3 = alloca i32, align 4
  %4 = alloca i64, align 8
  call void @llvm.lifetime.start.p0(i64 16, ptr %2) #13
  %5 = call i32 @clock_gettime(i32 noundef 1, ptr noundef %2) #13
  %6 = icmp slt i32 %5, 0
  br i1 %6, label %7, label %8

7:                                                ; preds = %0
  store i64 -1, ptr %1, align 8
  store i32 1, ptr %3, align 4
  br label %19

8:                                                ; preds = %0
  call void @llvm.lifetime.start.p0(i64 8, ptr %4) #13
  %9 = getelementptr inbounds nuw %struct.timespec, ptr %2, i32 0, i32 0
  %10 = load i64, ptr %9, align 8, !tbaa !315
  %11 = mul nsw i64 %10, 1000000
  store i64 %11, ptr %4, align 8, !tbaa !25
  %12 = getelementptr inbounds nuw %struct.timespec, ptr %2, i32 0, i32 1
  %13 = load i64, ptr %12, align 8, !tbaa !317
  %14 = mul nsw i64 %13, 1000000
  %15 = sdiv i64 %14, 1000000000
  %16 = load i64, ptr %4, align 8, !tbaa !25
  %17 = add nsw i64 %16, %15
  store i64 %17, ptr %4, align 8, !tbaa !25
  %18 = load i64, ptr %4, align 8, !tbaa !25
  store i64 %18, ptr %1, align 8
  store i32 1, ptr %3, align 4
  call void @llvm.lifetime.end.p0(i64 8, ptr %4) #13
  br label %19

19:                                               ; preds = %8, %7
  call void @llvm.lifetime.end.p0(i64 16, ptr %2) #13
  %20 = load i64, ptr %1, align 8
  ret i64 %20
}

; Function Attrs: inlinehint nounwind uwtable
define internal float @Scl_Int2Flt(i32 noundef %0) #2 {
  %2 = alloca i32, align 4
  store i32 %0, ptr %2, align 4, !tbaa !17
  %3 = load i32, ptr %2, align 4, !tbaa !17
  %4 = sitofp i32 %3 to float
  %5 = fdiv float %4, 1.000000e+03
  ret float %5
}

; Function Attrs: nounwind uwtable
define void @Nf_ManPrintStats(ptr noundef %0, ptr noundef %1) #0 {
  %3 = alloca ptr, align 8
  %4 = alloca ptr, align 8
  store ptr %0, ptr %3, align 8, !tbaa !61
  store ptr %1, ptr %4, align 8, !tbaa !175
  %5 = load ptr, ptr %3, align 8, !tbaa !61
  %6 = getelementptr inbounds nuw %struct.Nf_Man_t_, ptr %5, i32 0, i32 2
  %7 = load ptr, ptr %6, align 8, !tbaa !103
  %8 = getelementptr inbounds nuw %struct.Jf_Par_t_, ptr %7, i32 0, i32 34
  %9 = load i32, ptr %8, align 8, !tbaa !176
  %10 = icmp ne i32 %9, 0
  br i1 %10, label %12, label %11

11:                                               ; preds = %2
  br label %55

12:                                               ; preds = %2
  %13 = load ptr, ptr %4, align 8, !tbaa !175
  %14 = call i32 (ptr, ...) @printf(ptr noundef @.str.9, ptr noundef %13)
  %15 = load ptr, ptr %3, align 8, !tbaa !61
  %16 = getelementptr inbounds nuw %struct.Nf_Man_t_, ptr %15, i32 0, i32 2
  %17 = load ptr, ptr %16, align 8, !tbaa !103
  %18 = getelementptr inbounds nuw %struct.Jf_Par_t_, ptr %17, i32 0, i32 48
  %19 = load i32, ptr %18, align 8, !tbaa !177
  %20 = call float @Scl_Int2Flt(i32 noundef %19)
  %21 = fpext float %20 to double
  %22 = call i32 (ptr, ...) @printf(ptr noundef @.str.10, double noundef %21)
  %23 = load ptr, ptr %3, align 8, !tbaa !61
  %24 = getelementptr inbounds nuw %struct.Nf_Man_t_, ptr %23, i32 0, i32 2
  %25 = load ptr, ptr %24, align 8, !tbaa !103
  %26 = getelementptr inbounds nuw %struct.Jf_Par_t_, ptr %25, i32 0, i32 50
  %27 = load float, ptr %26, align 8, !tbaa !178
  %28 = fpext float %27 to double
  %29 = call i32 (ptr, ...) @printf(ptr noundef @.str.11, double noundef %28)
  %30 = load ptr, ptr %3, align 8, !tbaa !61
  %31 = getelementptr inbounds nuw %struct.Nf_Man_t_, ptr %30, i32 0, i32 2
  %32 = load ptr, ptr %31, align 8, !tbaa !103
  %33 = getelementptr inbounds nuw %struct.Jf_Par_t_, ptr %32, i32 0, i32 41
  %34 = load i64, ptr %33, align 8, !tbaa !179
  %35 = trunc i64 %34 to i32
  %36 = call i32 (ptr, ...) @printf(ptr noundef @.str.12, i32 noundef %35)
  %37 = load ptr, ptr %3, align 8, !tbaa !61
  %38 = getelementptr inbounds nuw %struct.Nf_Man_t_, ptr %37, i32 0, i32 19
  %39 = load i32, ptr %38, align 4, !tbaa !180
  %40 = call i32 (ptr, ...) @printf(ptr noundef @.str.13, i32 noundef %39)
  %41 = load ptr, ptr %3, align 8, !tbaa !61
  %42 = getelementptr inbounds nuw %struct.Nf_Man_t_, ptr %41, i32 0, i32 2
  %43 = load ptr, ptr %42, align 8, !tbaa !103
  %44 = getelementptr inbounds nuw %struct.Jf_Par_t_, ptr %43, i32 0, i32 42
  %45 = load i64, ptr %44, align 8, !tbaa !181
  %46 = trunc i64 %45 to i32
  %47 = call i32 (ptr, ...) @printf(ptr noundef @.str.14, i32 noundef %46)
  %48 = call i64 @Abc_Clock()
  %49 = load ptr, ptr %3, align 8, !tbaa !61
  %50 = getelementptr inbounds nuw %struct.Nf_Man_t_, ptr %49, i32 0, i32 23
  %51 = load i64, ptr %50, align 8, !tbaa !99
  %52 = sub nsw i64 %48, %51
  call void @Abc_PrintTime(i32 noundef 1, ptr noundef @.str.15, i64 noundef %52)
  %53 = load ptr, ptr @stdout, align 8, !tbaa !182
  %54 = call i32 @fflush(ptr noundef %53)
  br label %55

55:                                               ; preds = %12, %11
  ret void
}