; Function Attrs: nounwind uwtable
define void @Nf_ManPrintStats(ptr noundef readonly captures(none) %0, ptr noundef %1) local_unnamed_addr #2 {
  %3 = alloca %struct.timespec, align 8
  %4 = getelementptr inbounds nuw i8, ptr %0, i64 16
  %5 = load ptr, ptr %4, align 8, !tbaa !103
  %6 = getelementptr inbounds nuw i8, ptr %5, i64 136
  %7 = load i32, ptr %6, align 8, !tbaa !178
  %.not = icmp eq i32 %7, 0
  br i1 %.not, label %51, label %8

8:                                                ; preds = %2
  %9 = tail call i32 (ptr, ...) @printf(ptr noundef nonnull dereferenceable(1) @.str.9, ptr noundef %1)
  %10 = load ptr, ptr %4, align 8, !tbaa !103
  %11 = getelementptr inbounds nuw i8, ptr %10, i64 224
  %12 = load i32, ptr %11, align 8, !tbaa !179
  %13 = sitofp i32 %12 to float
  %14 = fdiv float %13, 1.000000e+03
  %15 = fpext float %14 to double
  %16 = tail call i32 (ptr, ...) @printf(ptr noundef nonnull dereferenceable(1) @.str.10, double noundef %15)
  %17 = load ptr, ptr %4, align 8, !tbaa !103
  %18 = getelementptr inbounds nuw i8, ptr %17, i64 232
  %19 = load float, ptr %18, align 8, !tbaa !180
  %20 = fpext float %19 to double
  %21 = tail call i32 (ptr, ...) @printf(ptr noundef nonnull dereferenceable(1) @.str.11, double noundef %20)
  %22 = load ptr, ptr %4, align 8, !tbaa !103
  %23 = getelementptr inbounds nuw i8, ptr %22, i64 168
  %24 = load i64, ptr %23, align 8, !tbaa !181
  %25 = trunc i64 %24 to i32
  %26 = tail call i32 (ptr, ...) @printf(ptr noundef nonnull dereferenceable(1) @.str.12, i32 noundef %25)
  %27 = getelementptr inbounds nuw i8, ptr %0, i64 204
  %28 = load i32, ptr %27, align 4, !tbaa !182
  %29 = tail call i32 (ptr, ...) @printf(ptr noundef nonnull dereferenceable(1) @.str.13, i32 noundef %28)
  %30 = load ptr, ptr %4, align 8, !tbaa !103
  %31 = getelementptr inbounds nuw i8, ptr %30, i64 176
  %32 = load i64, ptr %31, align 8, !tbaa !183
  %33 = trunc i64 %32 to i32
  %34 = tail call i32 (ptr, ...) @printf(ptr noundef nonnull dereferenceable(1) @.str.14, i32 noundef %33)
  call void @llvm.lifetime.start.p0(i64 16, ptr nonnull %3) #26
  %35 = call i32 @clock_gettime(i32 noundef 1, ptr noundef nonnull %3) #26
  %36 = icmp slt i32 %35, 0
  br i1 %36, label %Abc_Clock.exit, label %37

37:                                               ; preds = %8
  %38 = load i64, ptr %3, align 8, !tbaa !96
  %39 = mul nsw i64 %38, 1000000
  %40 = getelementptr inbounds nuw i8, ptr %3, i64 8
  %41 = load i64, ptr %40, align 8, !tbaa !98
  %42 = sdiv i64 %41, 1000
  %43 = add nsw i64 %42, %39
  br label %Abc_Clock.exit

Abc_Clock.exit:                                   ; preds = %8, %37
  %.0.i = phi i64 [ %43, %37 ], [ -1, %8 ]
  call void @llvm.lifetime.end.p0(i64 16, ptr nonnull %3) #26
  %44 = getelementptr inbounds nuw i8, ptr %0, i64 232
  %45 = load i64, ptr %44, align 8, !tbaa !99
  %46 = sub nsw i64 %.0.i, %45
  call void (i32, ptr, ...) @Abc_Print(i32 noundef 1, ptr noundef nonnull @.str.86, ptr noundef nonnull @.str.15)
  %47 = sitofp i64 %46 to double
  %48 = fdiv double %47, 1.000000e+06
  call void (i32, ptr, ...) @Abc_Print(i32 noundef 1, ptr noundef nonnull @.str.87, double noundef %48)
  %49 = load ptr, ptr @stdout, align 8, !tbaa !184
  %50 = call i32 @fflush(ptr noundef %49)
  br label %51

51:                                               ; preds = %2, %Abc_Clock.exit
  ret void
}